; Function Attrs: nounwind uwtable
define internal fastcc void @compute_max_row(ptr noundef readonly captures(none) %0, ptr noundef readonly captures(none) %1, ptr noundef readonly captures(none) %2, i32 noundef %3, i32 noundef %4) unnamed_addr #0 {
  %6 = add nsw i32 %4, %3
  %7 = icmp sgt i32 %6, -1
  br i1 %7, label %8, label %28

8:                                                ; preds = %5
  %9 = getelementptr inbounds nuw i8, ptr %0, i64 12
  %10 = load i32, ptr %9, align 4, !tbaa !74
  %11 = icmp slt i32 %6, %10
  br i1 %11, label %12, label %28

12:                                               ; preds = %8
  %13 = load ptr, ptr %1, align 8, !tbaa !141
  %14 = sext i32 %3 to i64
  %15 = getelementptr inbounds ptr, ptr %13, i64 %14
  %16 = load ptr, ptr %15, align 8, !tbaa !142
  %17 = load ptr, ptr %16, align 8, !tbaa !68
  %18 = load ptr, ptr %0, align 8, !tbaa !70
  %19 = zext nneg i32 %6 to i64
  %20 = getelementptr inbounds nuw ptr, ptr %18, i64 %19
  %21 = load ptr, ptr %20, align 8, !tbaa !68
  %22 = getelementptr inbounds nuw i8, ptr %1, i64 28
  %23 = load i32, ptr %22, align 4, !tbaa !151
  %24 = getelementptr inbounds nuw i8, ptr %1, i64 36
  %25 = load i32, ptr %24, align 4, !tbaa !143
  %26 = mul nsw i32 %25, %23
  %27 = sext i32 %26 to i64
  tail call void @llvm.memcpy.p0.p0.i64(ptr align 1 %17, ptr align 1 %21, i64 %27, i1 false)
  br label %40

28:                                               ; preds = %8, %5
  %29 = load ptr, ptr %1, align 8, !tbaa !141
  %30 = sext i32 %3 to i64
  %31 = getelementptr inbounds ptr, ptr %29, i64 %30
  %32 = load ptr, ptr %31, align 8, !tbaa !142
  %33 = load ptr, ptr %32, align 8, !tbaa !68
  %34 = getelementptr inbounds nuw i8, ptr %1, i64 28
  %35 = load i32, ptr %34, align 4, !tbaa !151
  %36 = getelementptr inbounds nuw i8, ptr %1, i64 36
  %37 = load i32, ptr %36, align 4, !tbaa !143
  %38 = mul nsw i32 %37, %35
  %39 = sext i32 %38 to i64
  tail call void @llvm.memset.p0.i64(ptr align 1 %33, i8 0, i64 %39, i1 false)
  br label %40

40:                                               ; preds = %28, %12
  %41 = getelementptr inbounds nuw i8, ptr %2, i64 24
  %42 = load i32, ptr %41, align 8, !tbaa !25
  %43 = icmp sgt i32 %42, 1
  br i1 %43, label %.lr.ph, label %._crit_edge

.lr.ph:                                           ; preds = %40
  %44 = getelementptr inbounds nuw i8, ptr %2, i64 16
  %45 = getelementptr inbounds nuw i8, ptr %0, i64 32
  %46 = sext i32 %3 to i64
  %47 = getelementptr inbounds nuw i8, ptr %1, i64 32
  %48 = getelementptr inbounds nuw i8, ptr %0, i64 24
  %49 = getelementptr inbounds nuw i8, ptr %1, i64 28
  br label %50

._crit_edge:                                      ; preds = %50, %40
  ret void

50:                                               ; preds = %.lr.ph, %50
  %indvars.iv = phi i64 [ 1, %.lr.ph ], [ %indvars.iv.next, %50 ]
  %51 = load ptr, ptr %44, align 8, !tbaa !99
  %52 = getelementptr inbounds nuw i32, ptr %51, i64 %indvars.iv
  %53 = load i32, ptr %52, align 4, !tbaa !54
  %54 = add nsw i64 %indvars.iv, -1
  %55 = getelementptr inbounds i32, ptr %51, i64 %54
  %56 = load i32, ptr %55, align 4, !tbaa !54
  %57 = sub nsw i32 %53, %56
  %58 = load ptr, ptr %45, align 8, !tbaa !78
  %59 = load ptr, ptr %1, align 8, !tbaa !141
  %60 = getelementptr inbounds ptr, ptr %59, i64 %46
  %61 = load ptr, ptr %60, align 8, !tbaa !142
  %62 = getelementptr inbounds nuw ptr, ptr %61, i64 %indvars.iv
  %63 = load ptr, ptr %62, align 8, !tbaa !68
  %64 = load i32, ptr %47, align 8, !tbaa !152
  %65 = load i32, ptr %48, align 8, !tbaa !77
  %66 = mul nsw i32 %65, %64
  %67 = sext i32 %66 to i64
  %68 = sub nsw i64 0, %67
  %69 = getelementptr inbounds i8, ptr %63, i64 %68
  %70 = getelementptr inbounds ptr, ptr %61, i64 %54
  %71 = load ptr, ptr %70, align 8, !tbaa !68
  %72 = getelementptr inbounds i8, ptr %71, i64 %68
  %73 = sub nsw i32 %57, %64
  %74 = mul nsw i32 %73, %65
  %75 = sext i32 %74 to i64
  %76 = getelementptr inbounds i8, ptr %71, i64 %75
  %77 = load i32, ptr %49, align 4, !tbaa !151
  %78 = sub i32 %64, %57
  %79 = add i32 %78, %77
  tail call void %58(ptr noundef %69, ptr noundef %72, ptr noundef %76, i32 noundef %79) #14
  %80 = load ptr, ptr %1, align 8, !tbaa !141
  %81 = getelementptr inbounds ptr, ptr %80, i64 %46
  %82 = load ptr, ptr %81, align 8, !tbaa !142
  %83 = getelementptr inbounds nuw ptr, ptr %82, i64 %indvars.iv
  %84 = load ptr, ptr %83, align 8, !tbaa !68
  %85 = load i32, ptr %49, align 4, !tbaa !151
  %86 = sub nsw i32 %85, %57
  %87 = load i32, ptr %48, align 8, !tbaa !77
  %88 = mul nsw i32 %86, %87
  %89 = sext i32 %88 to i64
  %90 = getelementptr inbounds i8, ptr %84, i64 %89
  %91 = getelementptr inbounds ptr, ptr %82, i64 %54
  %92 = load ptr, ptr %91, align 8, !tbaa !68
  %93 = getelementptr inbounds i8, ptr %92, i64 %89
  %94 = mul nsw i32 %87, %57
  %95 = sext i32 %94 to i64
  tail call void @llvm.memcpy.p0.p0.i64(ptr align 1 %90, ptr align 1 %93, i64 %95, i1 false)
  %indvars.iv.next = add nuw nsw i64 %indvars.iv, 1
  %96 = load i32, ptr %41, align 8, !tbaa !25
  %97 = sext i32 %96 to i64
  %98 = icmp slt i64 %indvars.iv.next, %97
  br i1 %98, label %50, label %._crit_edge, !llvm.loop !159
}